target datalayout = "e-m:e-p270:32:32-p271:32:32-p272:64:64-i64:64-i128:128-f80:128-n8:16:32:64-S128"
target triple = "x86_64-pc-linux-gnu"

@_ZTIN19OpenColorIO_v2_5dev9ExceptionE = external constant ptr
@_ZN19OpenColorIO_v2_5dev12_GLOBAL__N_114EC_STYLE_VIDEOE = internal constant [6 x i8] c"video\00", align 1
@_ZN19OpenColorIO_v2_5dev12_GLOBAL__N_120EC_STYLE_LOGARITHMICE = internal constant [4 x i8] c"log\00", align 1
@_ZN19OpenColorIO_v2_5dev12_GLOBAL__N_115EC_STYLE_LINEARE = internal constant [7 x i8] c"linear\00", align 1
@.str.102 = private unnamed_addr constant [32 x i8] c"Unknown exposure contrast style\00", align 1

; Function Attrs: mustprogress uwtable
define noundef ptr @_ZN19OpenColorIO_v2_5dev29ExposureContrastStyleToStringENS_21ExposureContrastStyleE(i32 noundef %0) #6 personality ptr @__gxx_personality_v0 {
  %2 = alloca ptr, align 8
  %3 = alloca i32, align 4
  %4 = alloca ptr, align 8
  %5 = alloca i32, align 4
  store i32 %0, ptr %3, align 4, !tbaa !75
  %6 = load i32, ptr %3, align 4, !tbaa !75
  switch i32 %6, label %10 [
    i32 1, label %7
    i32 2, label %8
    i32 0, label %9
  ]

7:                                                ; preds = %1
  store ptr @_ZN19OpenColorIO_v2_5dev12_GLOBAL__N_114EC_STYLE_VIDEOE, ptr %2, align 8
  br label %17

8:                                                ; preds = %1
  store ptr @_ZN19OpenColorIO_v2_5dev12_GLOBAL__N_120EC_STYLE_LOGARITHMICE, ptr %2, align 8
  br label %17

9:                                                ; preds = %1
  store ptr @_ZN19OpenColorIO_v2_5dev12_GLOBAL__N_115EC_STYLE_LINEARE, ptr %2, align 8
  br label %17

10:                                               ; preds = %1
  %11 = call ptr @__cxa_allocate_exception(i64 16) #3
  invoke void @_ZN19OpenColorIO_v2_5dev9ExceptionC1EPKc(ptr noundef nonnull align 8 dereferenceable(16) %11, ptr noundef @.str.102)
          to label %12 unwind label %13

12:                                               ; preds = %10
  call void @__cxa_throw(ptr %11, ptr @_ZTIN19OpenColorIO_v2_5dev9ExceptionE, ptr @_ZN19OpenColorIO_v2_5dev9ExceptionD1Ev) #18
  unreachable

13:                                               ; preds = %10
  %14 = landingpad { ptr, i32 }
          cleanup
  %15 = extractvalue { ptr, i32 } %14, 0
  store ptr %15, ptr %4, align 8
  %16 = extractvalue { ptr, i32 } %14, 1
  store i32 %16, ptr %5, align 4
  call void @__cxa_free_exception(ptr %11) #3
  br label %19

17:                                               ; preds = %9, %8, %7
  %18 = load ptr, ptr %2, align 8
  ret ptr %18

19:                                               ; preds = %13
  %20 = load ptr, ptr %4, align 8
  %21 = load i32, ptr %5, align 4
  %22 = insertvalue { ptr, i32 } poison, ptr %20, 0
  %23 = insertvalue { ptr, i32 } %22, i32 %21, 1
  resume { ptr, i32 } %23
}